target datalayout = "e-m:e-p270:32:32-p271:32:32-p272:64:64-i64:64-i128:128-f80:128-n8:16:32:64-S128"
target triple = "x86_64-pc-linux-gnu"

%struct.avifROData = type { ptr, i64 }
%struct.avifROStream = type { ptr, i64, i64, ptr, ptr }
%struct.avifProperty = type { [4 x i8], %union.anon }
%union.anon = type { %struct.avifColourInformationBox, [24 x i8] }
%struct.avifColourInformationBox = type { i32, i64, i64, i32, i16, i16, i16, i32 }
%struct.avifAV1LayeredImageIndexingProperty = type { [3 x i32] }

@.str.89 = private unnamed_addr constant [10 x i8] c"Box[a1lx]\00", align 1
@.str.90 = private unnamed_addr constant [52 x i8] c"Box[a1lx] has bits set in the reserved section [%u]\00", align 1

; Function Attrs: nounwind uwtable
define internal i32 @avifParseAV1LayeredImageIndexingProperty(ptr noundef %0, ptr noundef %1, i64 noundef %2, ptr noundef %3) #0 {
  %5 = alloca i32, align 4
  %6 = alloca ptr, align 8
  %7 = alloca ptr, align 8
  %8 = alloca i64, align 8
  %9 = alloca ptr, align 8
  %10 = alloca %struct.avifROStream, align 8
  %11 = alloca %struct.avifROData, align 8
  %12 = alloca ptr, align 8
  %13 = alloca i8, align 1
  %14 = alloca i32, align 4
  %15 = alloca i16, align 2
  store ptr %0, ptr %6, align 8
  store ptr %1, ptr %7, align 8
  store i64 %2, ptr %8, align 8
  store ptr %3, ptr %9, align 8
  %16 = load ptr, ptr %7, align 8
  %17 = getelementptr inbounds nuw %struct.avifROData, ptr %11, i32 0, i32 0
  store ptr %16, ptr %17, align 8
  %18 = load i64, ptr %8, align 8
  %19 = getelementptr inbounds nuw %struct.avifROData, ptr %11, i32 0, i32 1
  store i64 %18, ptr %19, align 8
  %20 = load ptr, ptr %9, align 8
  call void @avifROStreamStart(ptr noundef %10, ptr noundef %11, ptr noundef %20, ptr noundef @.str.89)
  %21 = load ptr, ptr %6, align 8
  %22 = getelementptr inbounds nuw %struct.avifProperty, ptr %21, i32 0, i32 1
  store ptr %22, ptr %12, align 8
  store i8 0, ptr %13, align 1
  br label %23

23:                                               ; preds = %4
  %24 = call i32 @avifROStreamRead(ptr noundef %10, ptr noundef %13, i64 noundef 1)
  %25 = icmp ne i32 %24, 0
  br i1 %25, label %27, label %26

26:                                               ; preds = %23
  store i32 0, ptr %5, align 4
  br label %75

27:                                               ; preds = %23
  br label %28

28:                                               ; preds = %27
  %29 = load i8, ptr %13, align 1
  %30 = zext i8 %29 to i32
  %31 = and i32 %30, 254
  %32 = icmp ne i32 %31, 0
  br i1 %32, label %33, label %37

33:                                               ; preds = %28
  %34 = load ptr, ptr %9, align 8
  %35 = load i8, ptr %13, align 1
  %36 = zext i8 %35 to i32
  call void (ptr, ptr, ...) @avifDiagnosticsPrintf(ptr noundef %34, ptr noundef @.str.90, i32 noundef %36)
  store i32 0, ptr %5, align 4
  br label %75

37:                                               ; preds = %28
  store i32 0, ptr %14, align 4
  br label %38

38:                                               ; preds = %71, %37
  %39 = load i32, ptr %14, align 4
  %40 = icmp slt i32 %39, 3
  br i1 %40, label %41, label %74

41:                                               ; preds = %38
  %42 = load i8, ptr %13, align 1
  %43 = icmp ne i8 %42, 0
  br i1 %43, label %44, label %56

44:                                               ; preds = %41
  br label %45

45:                                               ; preds = %44
  %46 = load ptr, ptr %12, align 8
  %47 = getelementptr inbounds nuw %struct.avifAV1LayeredImageIndexingProperty, ptr %46, i32 0, i32 0
  %48 = load i32, ptr %14, align 4
  %49 = sext i32 %48 to i64
  %50 = getelementptr inbounds [3 x i32], ptr %47, i64 0, i64 %49
  %51 = call i32 @avifROStreamReadU32(ptr noundef %10, ptr noundef %50)
  %52 = icmp ne i32 %51, 0
  br i1 %52, label %54, label %53

53:                                               ; preds = %45
  store i32 0, ptr %5, align 4
  br label %75

54:                                               ; preds = %45
  br label %55

55:                                               ; preds = %54
  br label %70

56:                                               ; preds = %41
  br label %57

57:                                               ; preds = %56
  %58 = call i32 @avifROStreamReadU16(ptr noundef %10, ptr noundef %15)
  %59 = icmp ne i32 %58, 0
  br i1 %59, label %61, label %60

60:                                               ; preds = %57
  store i32 0, ptr %5, align 4
  br label %75

61:                                               ; preds = %57
  br label %62

62:                                               ; preds = %61
  %63 = load i16, ptr %15, align 2
  %64 = zext i16 %63 to i32
  %65 = load ptr, ptr %12, align 8
  %66 = getelementptr inbounds nuw %struct.avifAV1LayeredImageIndexingProperty, ptr %65, i32 0, i32 0
  %67 = load i32, ptr %14, align 4
  %68 = sext i32 %67 to i64
  %69 = getelementptr inbounds [3 x i32], ptr %66, i64 0, i64 %68
  store i32 %64, ptr %69, align 4
  br label %70

70:                                               ; preds = %62, %55
  br label %71

71:                                               ; preds = %70
  %72 = load i32, ptr %14, align 4
  %73 = add nsw i32 %72, 1
  store i32 %73, ptr %14, align 4
  br label %38, !llvm.loop !76

74:                                               ; preds = %38
  store i32 1, ptr %5, align 4
  br label %75

75:                                               ; preds = %74, %60, %53, %33, %26
  %76 = load i32, ptr %5, align 4
  ret i32 %76
}