; Function Attrs: nounwind uwtable
define internal fastcc range(i32 0, 2) i32 @avifParseAV1LayeredImageIndexingProperty(ptr noundef nonnull %0, ptr noundef %1, i64 noundef %2, ptr noundef %3) unnamed_addr #0 {
  %5 = alloca %struct.avifROStream, align 8
  %6 = alloca %struct.avifROData, align 8
  %7 = alloca i8, align 1
  %8 = alloca i16, align 2
  store ptr %1, ptr %6, align 8
  %9 = getelementptr inbounds nuw i8, ptr %6, i64 8
  store i64 %2, ptr %9, align 8
  call void @avifROStreamStart(ptr noundef nonnull %5, ptr noundef nonnull %6, ptr noundef %3, ptr noundef nonnull @.str.89) #13
  %10 = getelementptr inbounds nuw i8, ptr %0, i64 8
  store i8 0, ptr %7, align 1
  %11 = call i32 @avifROStreamRead(ptr noundef nonnull %5, ptr noundef nonnull %7, i64 noundef 1) #13
  %.not = icmp eq i32 %11, 0
  br i1 %.not, label %.loopexit, label %12

12:                                               ; preds = %4
  %13 = load i8, ptr %7, align 1
  %.not12 = icmp ult i8 %13, 2
  br i1 %.not12, label %.preheader, label %14

14:                                               ; preds = %12
  %15 = zext i8 %13 to i32
  call void (ptr, ptr, ...) @avifDiagnosticsPrintf(ptr noundef %3, ptr noundef nonnull @.str.90, i32 noundef %15) #13
  br label %.loopexit

.preheaderthread-pre-split:                       ; preds = %26
  %.pr = load i8, ptr %7, align 1
  br label %.preheader

.preheader:                                       ; preds = %12, %.preheaderthread-pre-split
  %16 = phi i8 [ %.pr, %.preheaderthread-pre-split ], [ %13, %12 ]
  %indvars.iv = phi i64 [ %indvars.iv.next, %.preheaderthread-pre-split ], [ 0, %12 ]
  %.not13 = icmp eq i8 %16, 0
  br i1 %.not13, label %20, label %17

17:                                               ; preds = %.preheader
  %18 = getelementptr inbounds nuw [3 x i32], ptr %10, i64 0, i64 %indvars.iv
  %19 = call i32 @avifROStreamReadU32(ptr noundef nonnull %5, ptr noundef nonnull %18) #13
  %.not15 = icmp eq i32 %19, 0
  br i1 %.not15, label %.loopexit, label %26

20:                                               ; preds = %.preheader
  %21 = call i32 @avifROStreamReadU16(ptr noundef nonnull %5, ptr noundef nonnull %8) #13
  %.not14 = icmp eq i32 %21, 0
  br i1 %.not14, label %.loopexit, label %22

22:                                               ; preds = %20
  %23 = load i16, ptr %8, align 2
  %24 = zext i16 %23 to i32
  %25 = getelementptr inbounds nuw [3 x i32], ptr %10, i64 0, i64 %indvars.iv
  store i32 %24, ptr %25, align 4
  br label %26

26:                                               ; preds = %22, %17
  %indvars.iv.next = add nuw nsw i64 %indvars.iv, 1
  %exitcond.not = icmp eq i64 %indvars.iv.next, 3
  br i1 %exitcond.not, label %.loopexit, label %.preheaderthread-pre-split, !llvm.loop !89

.loopexit:                                        ; preds = %26, %20, %17, %4, %14
  %.011 = phi i32 [ 0, %14 ], [ 0, %4 ], [ 1, %26 ], [ 0, %20 ], [ 0, %17 ]
  ret i32 %.011
}